	.file	"v0-baseline.cc"
	.text
.Ltext0:
	.file 0 "/mnt/c/Users/huixu3/code/programming_parallel_computers/chapter2-case-study" "v0-baseline.cc"
#APP
	.globl _ZSt21ios_base_library_initv
#NO_APP
	.section	.text._ZNKSt5ctypeIcE8do_widenEc,"axG",@progbits,_ZNKSt5ctypeIcE8do_widenEc,comdat
	.align 2
	.p2align 4
	.weak	_ZNKSt5ctypeIcE8do_widenEc
	.type	_ZNKSt5ctypeIcE8do_widenEc, @function
_ZNKSt5ctypeIcE8do_widenEc:
.LVL0:
.LFB1790:
	.file 1 "/usr/include/c++/15/bits/locale_facets.h"
	.loc 1 1094 7 view -0
	.cfi_startproc
	.loc 1 1094 7 is_stmt 0 view .LVU1
	endbr64
	.loc 1 1095 9 is_stmt 1 view .LVU2
	.loc 1 1094 7 is_stmt 0 view .LVU3
	movl	%esi, %eax
	.loc 1 1095 21 view .LVU4
	ret
	.cfi_endproc
.LFE1790:
	.size	_ZNKSt5ctypeIcE8do_widenEc, .-_ZNKSt5ctypeIcE8do_widenEc
	.section	.text.unlikely,"ax",@progbits
.LCOLDB0:
	.text
.LHOTB0:
	.p2align 4
	.section	.text.unlikely
.Ltext_cold0:
	.text
	.type	_ZSt4endlIcSt11char_traitsIcEERSt13basic_ostreamIT_T0_ES6_.isra.0, @function
_ZSt4endlIcSt11char_traitsIcEERSt13basic_ostreamIT_T0_ES6_.isra.0:
.LVL1:
.LFB5251:
	.file 2 "/usr/include/c++/15/ostream"
	.loc 2 66 5 is_stmt 1 view -0
	.cfi_startproc
	.loc 2 66 5 is_stmt 0 view .LVU6
	pushq	%rbx
	.cfi_def_cfa_offset 16
	.cfi_offset 3, -16
	movq	%rdi, %rbx
	subq	$16, %rsp
	.cfi_def_cfa_offset 32
	.loc 2 67 39 view .LVU7
	movq	(%rdi), %rax
	movq	-24(%rax), %rax
	movq	240(%rdi,%rax), %rdi
.LVL2:
.LBB573:
.LBI573:
	.file 3 "/usr/include/c++/15/bits/basic_ios.h"
	.loc 3 464 7 is_stmt 1 view .LVU8
.LBB574:
.LBI574:
	.loc 3 49 5 view .LVU9
.LBB575:
	.loc 3 51 7 is_stmt 0 view .LVU10
	testq	%rdi, %rdi
	je	.L8
.LVL3:
	.loc 3 51 7 view .LVU11
.LBE575:
.LBE574:
.LBB577:
.LBI577:
	.loc 1 882 7 is_stmt 1 view .LVU12
.LBB578:
	.loc 1 884 2 view .LVU13
	cmpb	$0, 56(%rdi)
	je	.L5
	.loc 1 885 4 view .LVU14
	.loc 1 885 51 is_stmt 0 view .LVU15
	movsbl	67(%rdi), %esi
.LVL4:
.L6:
	.loc 1 885 51 view .LVU16
.LBE578:
.LBE577:
.LBE573:
	.loc 2 67 19 discriminator 1 view .LVU17
	movq	%rbx, %rdi
	call	_ZNSo3putEc@PLT
.LVL5:
.LBB588:
.LBI588:
	.loc 2 88 5 is_stmt 1 view .LVU18
.LBE588:
	.loc 2 67 49 is_stmt 0 view .LVU19
	addq	$16, %rsp
	.cfi_remember_state
	.cfi_def_cfa_offset 16
.LBB591:
.LBB589:
	.loc 2 89 24 view .LVU20
	movq	%rax, %rdi
.LBE589:
.LBE591:
	.loc 2 67 49 view .LVU21
	popq	%rbx
	.cfi_def_cfa_offset 8
.LVL6:
.LBB592:
.LBB590:
	.loc 2 89 24 view .LVU22
	jmp	_ZNSo5flushEv@PLT
.LVL7:
.L5:
	.cfi_restore_state
	.loc 2 89 24 view .LVU23
.LBE590:
.LBE592:
.LBB593:
.LBB585:
.LBB583:
.LBB579:
.LBI579:
	.loc 1 882 7 is_stmt 1 view .LVU24
.LBB580:
	.loc 1 886 2 view .LVU25
	.loc 1 886 21 is_stmt 0 view .LVU26
	movq	%rdi, 8(%rsp)
	call	_ZNKSt5ctypeIcE13_M_widen_initEv@PLT
.LVL8:
	.loc 1 887 2 is_stmt 1 view .LVU27
	.loc 1 887 23 is_stmt 0 view .LVU28
	movq	8(%rsp), %rdi
	leaq	_ZNKSt5ctypeIcE8do_widenEc(%rip), %rdx
	movl	$10, %esi
	movq	(%rdi), %rax
	movq	48(%rax), %rax
	cmpq	%rdx, %rax
	je	.L6
	.loc 1 887 23 view .LVU29
	movl	$10, %esi
	call	*%rax
.LVL9:
	movsbl	%al, %esi
	jmp	.L6
.LVL10:
	.loc 1 887 23 view .LVU30
.LBE580:
.LBE579:
.LBE583:
.LBE585:
.LBE593:
	.cfi_endproc
	.section	.text.unlikely
	.cfi_startproc
	.type	_ZSt4endlIcSt11char_traitsIcEERSt13basic_ostreamIT_T0_ES6_.isra.0.cold, @function
_ZSt4endlIcSt11char_traitsIcEERSt13basic_ostreamIT_T0_ES6_.isra.0.cold:
.LFSB5251:
.LBB594:
.LBB586:
.LBB584:
.LBB582:
.LBB581:
.L8:
	.cfi_def_cfa_offset 32
	.cfi_offset 3, -16
.LBE581:
.LBE582:
.LBE584:
.LBE586:
.LBB587:
.LBB576:
	.loc 3 52 18 view -0
	call	_ZSt16__throw_bad_castv@PLT
.LVL11:
	.loc 3 52 18 view .LVU32
.LBE576:
.LBE587:
.LBE594:
	.cfi_endproc
.LFE5251:
	.text
	.size	_ZSt4endlIcSt11char_traitsIcEERSt13basic_ostreamIT_T0_ES6_.isra.0, .-_ZSt4endlIcSt11char_traitsIcEERSt13basic_ostreamIT_T0_ES6_.isra.0
	.section	.text.unlikely
	.size	_ZSt4endlIcSt11char_traitsIcEERSt13basic_ostreamIT_T0_ES6_.isra.0.cold, .-_ZSt4endlIcSt11char_traitsIcEERSt13basic_ostreamIT_T0_ES6_.isra.0.cold
.LCOLDE0:
	.text
.LHOTE0:
	.p2align 4
	.globl	_Z4stepPfPKfi
	.type	_Z4stepPfPKfi, @function
_Z4stepPfPKfi:
.LVL12:
.LFB4405:
	.file 4 "v0-baseline.cc"
	.loc 4 7 44 is_stmt 1 view -0
	.cfi_startproc
	.loc 4 7 44 is_stmt 0 view .LVU34
	endbr64
	.loc 4 15 5 is_stmt 1 view .LVU35
.LVL13:
.LBB595:
	.loc 4 15 23 discriminator 1 view .LVU36
	testl	%edx, %edx
	jle	.L22
.LBE595:
	.loc 4 7 44 is_stmt 0 view .LVU37
	pushq	%r12
	.cfi_def_cfa_offset 16
	.cfi_offset 12, -16
	movslq	%edx, %r11
	vmovss	.LC1(%rip), %xmm3
	movq	%rdi, %r9
	leaq	0(,%r11,4), %rcx
.LBB604:
	.loc 4 15 14 view .LVU38
	xorl	%r12d, %r12d
.LBE604:
	.loc 4 7 44 view .LVU39
	pushq	%rbp
	.cfi_def_cfa_offset 24
	.cfi_offset 6, -24
	movl	%edx, %ebp
	pushq	%rbx
	.cfi_def_cfa_offset 32
	.cfi_offset 3, -32
	movq	%rsi, %rbx
	leaq	(%rsi,%rcx), %rsi
.LVL14:
.LBB605:
	.loc 4 15 23 discriminator 1 view .LVU40
	movq	%rbx, %r10
.LVL15:
	.p2align 4,,10
	.p2align 3
.L12:
.LBB596:
	.loc 4 16 27 is_stmt 1 discriminator 1 view .LVU41
.LBB597:
	.loc 4 17 19 is_stmt 0 view .LVU42
	movq	%rbx, %r8
	xorl	%edi, %edi
.LVL16:
	.p2align 4,,10
	.p2align 3
.L17:
.LBB598:
	.loc 4 18 31 is_stmt 1 discriminator 1 view .LVU43
.LBE598:
.LBE597:
.LBE596:
.LBE605:
	.loc 4 7 44 is_stmt 0 view .LVU44
	movq	%r8, %rdx
	movq	%r10, %rax
.LBB606:
.LBB603:
.LBB602:
	.loc 4 17 19 view .LVU45
	vmovaps	%xmm3, %xmm2
.LVL17:
	.loc 4 17 19 view .LVU46
	.p2align 6
	.p2align 4,,10
	.p2align 3
.L15:
.LVL18:
.LBB601:
.LBB599:
	.loc 4 19 17 is_stmt 1 view .LVU47
	.loc 4 20 17 view .LVU48
	.loc 4 21 17 view .LVU49
	.loc 4 21 29 is_stmt 0 view .LVU50
	vmovss	(%rax), %xmm0
.LBE599:
	.loc 4 18 31 discriminator 1 view .LVU51
	addq	$4, %rax
.LVL19:
.LBB600:
	.loc 4 21 29 view .LVU52
	vaddss	(%rdx), %xmm0, %xmm0
.LVL20:
	.loc 4 22 17 is_stmt 1 view .LVU53
	.loc 4 22 17 is_stmt 0 view .LVU54
.LBE600:
	.loc 4 18 31 discriminator 1 view .LVU55
	addq	%rcx, %rdx
.LVL21:
	.loc 4 18 31 discriminator 1 view .LVU56
	vminss	%xmm2, %xmm0, %xmm1
	vmovaps	%xmm1, %xmm2
.LVL22:
	.loc 4 18 13 is_stmt 1 discriminator 3 view .LVU57
	.loc 4 18 31 discriminator 1 view .LVU58
	cmpq	%rax, %rsi
	jne	.L15
.LBE601:
	.loc 4 24 13 view .LVU59
	.loc 4 24 24 is_stmt 0 view .LVU60
	vmovss	%xmm1, (%r9,%rdi,4)
.LVL23:
	.loc 4 24 24 view .LVU61
.LBE602:
	.loc 4 16 9 is_stmt 1 discriminator 2 view .LVU62
	.loc 4 16 27 discriminator 1 view .LVU63
	incq	%rdi
.LVL24:
	.loc 4 16 27 is_stmt 0 discriminator 1 view .LVU64
	addq	$4, %r8
	cmpq	%rdi, %r11
	jne	.L17
.LBE603:
	.loc 4 15 5 is_stmt 1 discriminator 2 view .LVU65
	incl	%r12d
.LVL25:
	.loc 4 15 23 discriminator 1 view .LVU66
	addq	%rcx, %r9
	addq	%rcx, %r10
	addq	%rcx, %rsi
	cmpl	%r12d, %ebp
	jne	.L12
.LBE606:
	.loc 4 27 1 is_stmt 0 view .LVU67
	popq	%rbx
	.cfi_def_cfa_offset 24
.LVL26:
	.loc 4 27 1 view .LVU68
	popq	%rbp
	.cfi_def_cfa_offset 16
.LVL27:
	.loc 4 27 1 view .LVU69
	popq	%r12
	.cfi_def_cfa_offset 8
.LVL28:
	.loc 4 27 1 view .LVU70
	ret
.LVL29:
.L22:
	.cfi_restore 3
	.cfi_restore 6
	.cfi_restore 12
	.loc 4 27 1 view .LVU71
	ret
	.cfi_endproc
.LFE4405:
	.size	_Z4stepPfPKfi, .-_Z4stepPfPKfi
	.section	.rodata.str1.1,"aMS",@progbits,1
.LC17:
	.string	"n = "
.LC18:
	.string	"\n"
.LC19:
	.string	"Elapsed time: "
.LC20:
	.string	" seconds"
.LC21:
	.string	"Check sum: "
.LC22:
	.string	"Min value: "
.LC23:
	.string	"Max value: "
	.section	.text.unlikely
.LCOLDB24:
	.section	.text.startup,"ax",@progbits
.LHOTB24:
	.p2align 4
	.globl	main
	.type	main, @function
main:
.LFB4407:
	.loc 4 74 12 is_stmt 1 view -0
	.cfi_startproc
	.cfi_personality 0x9b,DW.ref.__gxx_personality_v0
	.cfi_lsda 0x1b,.LLSDA4407
	endbr64
	leaq	8(%rsp), %r10
	.cfi_def_cfa 10, 0
	andq	$-32, %rsp
	pushq	-8(%r10)
	pushq	%rbp
	movq	%rsp, %rbp
	.cfi_escape 0x10,0x6,0x2,0x76,0
	pushq	%r13
	pushq	%r12
	pushq	%r10
	.cfi_escape 0xf,0x3,0x76,0x68,0x6
	.cfi_escape 0x10,0xd,0x2,0x76,0x78
	.cfi_escape 0x10,0xc,0x2,0x76,0x70
	pushq	%rbx
	subq	$4096, %rsp
	orq	$0, (%rsp)
	subq	$976, %rsp
	.cfi_escape 0x10,0x3,0x2,0x76,0x60
.LBB880:
.LBB881:
.LBB882:
.LBB883:
.LBB884:
.LBB885:
.LBB886:
.LBB887:
	.file 5 "/usr/include/c++/15/bits/new_allocator.h"
	.loc 5 151 66 is_stmt 0 view .LVU73
	movq	%fs:40, %rdi
	movq	%rdi, -56(%rbp)
	movl	$64000000, %edi
.LEHB0:
	call	_Znwm@PLT
.LVL30:
.LEHE0:
.LBE887:
.LBE886:
.LBE885:
.LBE884:
.LBE883:
.LBE882:
.LBE881:
.LBB894:
.LBB895:
.LBB896:
.LBB897:
.LBB898:
.LBB899:
.LBB900:
.LBB901:
.LBB902:
.LBB903:
.LBB904:
.LBB905:
	.file 6 "/usr/include/c++/15/bits/stl_algobase.h"
	.loc 6 925 11 view .LVU74
	movl	$63999996, %edx
	xorl	%esi, %esi
.LBE905:
.LBE904:
.LBE903:
.LBE902:
.LBE901:
.LBB910:
.LBB911:
	.file 7 "/usr/include/c++/15/bits/stl_construct.h"
	.loc 7 133 7 discriminator 1 view .LVU75
	movl	$0x00000000, (%rax)
.LBE911:
.LBE910:
	.file 8 "/usr/include/c++/15/bits/stl_uninitialized.h"
	.loc 8 895 8 view .LVU76
	leaq	4(%rax), %rdi
.LBE900:
.LBE899:
.LBE898:
.LBE897:
.LBE896:
.LBE895:
.LBE894:
.LBB920:
.LBB893:
.LBB892:
.LBB891:
.LBB890:
.LBB889:
.LBB888:
	.loc 5 151 66 view .LVU77
	movq	%rax, %rbx
.LVL31:
	.loc 5 151 66 view .LVU78
.LBE888:
.LBE889:
.LBE890:
.LBE891:
.LBE892:
.LBE893:
.LBE920:
.LBB921:
.LBI894:
	.file 9 "/usr/include/c++/15/bits/stl_vector.h"
	.loc 9 2008 7 is_stmt 1 view .LVU79
.LBB919:
.LBI895:
	.loc 8 1000 5 view .LVU80
.LBB918:
.LBI896:
	.loc 8 931 5 view .LVU81
.LBB917:
.LBB916:
.LBI898:
	.loc 8 888 9 view .LVU82
.LBB915:
.LBI899:
	.loc 8 888 9 view .LVU83
.LBB914:
.LBB912:
.LBI910:
	.loc 7 123 5 view .LVU84
	.loc 7 123 5 is_stmt 0 view .LVU85
.LBE912:
.LBB913:
.LBI901:
	.loc 6 1173 5 is_stmt 1 view .LVU86
.LBB909:
.LBI902:
	.loc 6 1137 5 view .LVU87
.LBB908:
.LBI903:
	.loc 6 978 5 view .LVU88
.LBB907:
.LBI904:
	.loc 6 897 5 view .LVU89
.LBB906:
	.loc 6 924 22 discriminator 1 view .LVU90
	.loc 6 925 11 is_stmt 0 view .LVU91
	call	memset@PLT
.LVL32:
	.loc 6 925 11 view .LVU92
.LBE906:
.LBE907:
.LBE908:
.LBE909:
.LBE913:
.LBE914:
.LBE915:
.LBE916:
.LBE917:
.LBE918:
.LBE919:
.LBE921:
.LBE880:
.LBB922:
.LBI922:
	.file 10 "/usr/include/c++/15/bits/allocator.h"
	.loc 10 189 7 is_stmt 1 view .LVU93
.LBB923:
.LBI923:
	.loc 5 104 7 view .LVU94
	.loc 5 104 7 is_stmt 0 view .LVU95
.LBE923:
.LBE922:
	.loc 4 77 5 is_stmt 1 view .LVU96
.LBB924:
.LBI924:
	.loc 10 168 7 view .LVU97
.LBB925:
.LBI925:
	.loc 5 88 7 view .LVU98
	.loc 5 88 7 is_stmt 0 view .LVU99
.LBE925:
.LBE924:
.LBB926:
.LBI926:
	.loc 9 586 7 is_stmt 1 view .LVU100
.LBB927:
.LBI927:
	.loc 9 2213 7 view .LVU101
.LBB928:
.LBI928:
	.loc 10 172 7 view .LVU102
.LBB929:
.LBI929:
	.loc 5 92 7 view .LVU103
	.loc 5 92 7 is_stmt 0 view .LVU104
.LBE929:
.LBE928:
.LBB930:
.LBI930:
	.loc 10 189 7 is_stmt 1 view .LVU105
.LBB931:
.LBI931:
	.loc 5 104 7 view .LVU106
	.loc 5 104 7 is_stmt 0 view .LVU107
.LBE931:
.LBE930:
.LBE927:
.LBB932:
.LBI932:
	.loc 9 339 7 is_stmt 1 view .LVU108
.LBB933:
.LBI933:
	.loc 9 152 2 view .LVU109
.LBB934:
.LBI934:
	.loc 10 172 7 view .LVU110
.LBB935:
.LBI935:
	.loc 5 92 7 view .LVU111
	.loc 5 92 7 is_stmt 0 view .LVU112
.LBE935:
.LBE934:
.LBB936:
.LBI936:
	.loc 9 105 2 is_stmt 1 view .LVU113
	.loc 9 105 2 is_stmt 0 view .LVU114
.LBE936:
.LBE933:
.LBB937:
.LBI937:
	.loc 9 403 7 is_stmt 1 view .LVU115
.LBB938:
.LBI938:
	.loc 9 384 7 view .LVU116
.LBB939:
.LBB940:
.LBI940:
	.file 11 "/usr/include/c++/15/bits/alloc_traits.h"
	.loc 11 613 7 view .LVU117
.LBB941:
.LBI941:
	.loc 5 126 7 view .LVU118
.LBB942:
	.loc 5 151 66 is_stmt 0 view .LVU119
	movl	$64000000, %edi
.LEHB1:
	call	_Znwm@PLT
.LVL33:
.LEHE1:
.LBE942:
.LBE941:
.LBE940:
.LBE939:
.LBE938:
.LBE937:
.LBE932:
.LBB949:
.LBB950:
.LBB951:
.LBB952:
.LBB953:
.LBB954:
.LBB955:
.LBB956:
.LBB957:
	.loc 7 133 7 discriminator 1 view .LVU120
	movl	$0x00000000, (%rax)
.LBE957:
.LBE956:
.LBB958:
.LBB959:
.LBB960:
.LBB961:
.LBB962:
	.loc 6 925 11 view .LVU121
	movl	$63999996, %edx
	xorl	%esi, %esi
.LBE962:
.LBE961:
.LBE960:
.LBE959:
.LBE958:
	.loc 8 895 8 view .LVU122
	leaq	4(%rax), %rdi
.LBE955:
.LBE954:
.LBE953:
.LBE952:
.LBE951:
.LBE950:
.LBE949:
.LBB975:
.LBB948:
.LBB947:
.LBB946:
.LBB945:
.LBB944:
.LBB943:
	.loc 5 151 66 view .LVU123
	movq	%rax, %r12
.LVL34:
	.loc 5 151 66 view .LVU124
.LBE943:
.LBE944:
.LBE945:
.LBE946:
.LBE947:
.LBE948:
.LBE975:
.LBB976:
.LBI949:
	.loc 9 2008 7 is_stmt 1 view .LVU125
.LBB974:
.LBI950:
	.loc 8 1000 5 view .LVU126
.LBB973:
.LBI951:
	.loc 8 931 5 view .LVU127
.LBB972:
.LBB971:
.LBI953:
	.loc 8 888 9 view .LVU128
.LBB970:
.LBI954:
	.loc 8 888 9 view .LVU129
.LBB969:
.LBB967:
.LBI956:
	.loc 7 123 5 view .LVU130
	.loc 7 123 5 is_stmt 0 view .LVU131
.LBE967:
.LBB968:
.LBI958:
	.loc 6 1173 5 is_stmt 1 view .LVU132
.LBB966:
.LBI959:
	.loc 6 1137 5 view .LVU133
.LBB965:
.LBI960:
	.loc 6 978 5 view .LVU134
.LBB964:
.LBI961:
	.loc 6 897 5 view .LVU135
.LBB963:
	.loc 6 924 22 discriminator 1 view .LVU136
	.loc 6 925 11 is_stmt 0 view .LVU137
	call	memset@PLT
.LVL35:
	.loc 6 925 11 view .LVU138
.LBE963:
.LBE964:
.LBE965:
.LBE966:
.LBE968:
.LBE969:
.LBE970:
.LBE971:
.LBE972:
.LBE973:
.LBE974:
.LBE976:
.LBE926:
.LBB977:
.LBI977:
	.loc 10 189 7 is_stmt 1 view .LVU139
.LBB978:
.LBI978:
	.loc 5 104 7 view .LVU140
	.loc 5 104 7 is_stmt 0 view .LVU141
.LBE978:
.LBE977:
	.loc 4 78 5 is_stmt 1 view .LVU142
.LBB979:
.LBI979:
	.file 12 "/usr/include/c++/15/bits/random.h"
	.loc 12 647 7 view .LVU143
.LBB980:
.LBB981:
.LBI981:
	.file 13 "/usr/include/c++/15/bits/random.tcc"
	.loc 13 326 5 view .LVU144
.LBB982:
	.loc 13 330 15 is_stmt 0 view .LVU145
	movq	$0, -5072(%rbp)
.LVL36:
.LBB983:
	.loc 13 333 32 is_stmt 1 discriminator 1 view .LVU146
	leaq	-5064(%rbp), %rsi
.LBE983:
	.loc 13 330 15 is_stmt 0 view .LVU147
	xorl	%ecx, %ecx
.LBB990:
	.loc 13 333 19 view .LVU148
	movl	$1, %edx
.LVL37:
	.loc 13 333 19 view .LVU149
	.p2align 6
	.p2align 4,,10
	.p2align 3
.L26:
.LVL38:
.LBB984:
	.loc 13 336 15 view .LVU150
	movq	%rcx, %rax
.LBE984:
	.loc 13 333 32 discriminator 1 view .LVU151
	addq	$8, %rsi
.LBB988:
	.loc 13 336 15 view .LVU152
	shrq	$30, %rax
	.loc 13 336 8 view .LVU153
	xorq	%rcx, %rax
.LVL39:
	.loc 13 337 8 view .LVU154
	imulq	$1812433253, %rax, %rax
.LVL40:
.LBB985:
.LBI985:
	.loc 12 255 7 is_stmt 1 view .LVU155
.LBB986:
.LBI986:
	.loc 12 244 2 view .LVU156
.LBB987:
	.loc 12 248 12 is_stmt 0 view .LVU157
	leal	(%rax,%rdx), %ecx
.LVL41:
	.loc 12 248 12 view .LVU158
.LBE987:
.LBE986:
.LBE985:
.LBE988:
	.loc 13 333 7 discriminator 3 view .LVU159
	incq	%rdx
.LVL42:
.LBB989:
	.loc 13 339 14 view .LVU160
	movq	%rcx, -8(%rsi)
.LBE989:
	.loc 13 333 7 is_stmt 1 discriminator 3 view .LVU161
.LVL43:
	.loc 13 333 32 discriminator 1 view .LVU162
	cmpq	$624, %rdx
	jne	.L26
.LBE990:
.LBE982:
.LBE981:
.LBE980:
.LBE979:
.LBB991:
.LBB992:
.LBB993:
.LBB994:
.LBB995:
.LBB996:
.LBB997:
.LBB998:
.LBB999:
.LBB1000:
.LBB1001:
.LBB1002:
.LBB1003:
.LBB1004:
	.loc 13 407 24 is_stmt 0 view .LVU163
	movl	$2147483647, %r11d
	.loc 13 406 32 view .LVU164
	movq	$-2147483648, %r10
	.loc 13 409 18 view .LVU165
	movl	$1, %r9d
	.loc 13 408 14 view .LVU166
	movl	$2567483615, %r8d
	vmovss	.LC14(%rip), %xmm8
	vmovss	.LC15(%rip), %xmm7
	vxorps	%xmm6, %xmm6, %xmm6
	movq	%rbx, %rsi
.LBE1004:
.LBE1003:
.LBE1002:
.LBE1001:
.LBE1000:
.LBE999:
.LBE998:
.LBE997:
.LBE996:
.LBE995:
.LBE994:
.LBE993:
.LBE992:
	.loc 4 81 14 discriminator 3 view .LVU167
	vmovss	.LC5(%rip), %xmm9
	leaq	64000000(%rbx), %rdi
	leaq	-3280(%rbp), %rcx
.LBB1036:
.LBB1034:
.LBB1032:
.LBB1030:
.LBB1028:
.LBB1026:
.LBB1024:
.LBB1020:
.LBB1016:
.LBB1014:
.LBB1012:
.LBB1008:
.LBB1005:
	.loc 13 407 24 view .LVU168
	vpbroadcastq	%r11, %ymm5
	.loc 13 406 32 view .LVU169
	vpbroadcastq	%r10, %ymm4
	.loc 13 409 18 view .LVU170
	vpbroadcastq	%r9, %ymm3
	.loc 13 408 14 view .LVU171
	vpbroadcastq	%r8, %ymm2
	jmp	.L27
.LVL44:
	.p2align 4,,10
	.p2align 3
.L51:
	.loc 13 408 14 view .LVU172
.LBE1005:
.LBE1008:
.LBE1012:
.LBE1014:
	.loc 13 462 19 view .LVU173
	movq	-5072(%rbp,%rdx,8), %r13
	.loc 13 462 29 view .LVU174
	incq	%rdx
.L31:
	.loc 13 463 19 view .LVU175
	movq	%r13, %rax
.LBE1016:
.LBE1020:
	.loc 13 3367 10 discriminator 1 view .LVU176
	vxorps	%xmm1, %xmm1, %xmm1
.LBB1021:
.LBB1017:
	.loc 13 463 19 view .LVU177
	shrq	$11, %rax
	.loc 13 463 27 view .LVU178
	movl	%eax, %eax
	.loc 13 463 11 view .LVU179
	xorq	%r13, %rax
.LVL45:
	.loc 13 464 19 view .LVU180
	movq	%rax, %r13
	salq	$7, %r13
	.loc 13 464 27 view .LVU181
	andl	$2636928640, %r13d
	.loc 13 464 11 view .LVU182
	xorq	%r13, %rax
.LVL46:
	.loc 13 465 19 view .LVU183
	movq	%rax, %r13
	salq	$15, %r13
	.loc 13 465 27 view .LVU184
	andl	$4022730752, %r13d
	.loc 13 465 11 view .LVU185
	xorq	%r13, %rax
.LVL47:
	.loc 13 466 19 view .LVU186
	movq	%rax, %r13
	shrq	$18, %r13
.LVL48:
	.loc 13 466 19 view .LVU187
.LBE1017:
.LBE1021:
	.loc 13 3365 7 is_stmt 1 discriminator 3 view .LVU188
	.loc 13 3365 34 discriminator 1 view .LVU189
.LBB1022:
.LBB1018:
	.loc 13 466 11 is_stmt 0 view .LVU190
	xorq	%r13, %rax
.LVL49:
	.loc 13 466 11 view .LVU191
.LBE1018:
.LBE1022:
	.loc 13 3367 13 discriminator 1 view .LVU192
	vcvtusi2ssq	%rax, %xmm6, %xmm0
	.loc 13 3367 10 discriminator 1 view .LVU193
	vaddss	%xmm1, %xmm0, %xmm0
.LBE1024:
	.loc 13 3370 13 view .LVU194
	vmulss	%xmm8, %xmm0, %xmm0
.LVL50:
	.loc 13 3371 7 discriminator 1 view .LVU195
	vcomiss	%xmm7, %xmm0
	jnb	.L35
.LVL51:
	.loc 13 3371 7 discriminator 1 view .LVU196
.LBE1026:
.LBE1028:
.LBE1030:
	.loc 12 2011 53 discriminator 5 view .LVU197
	vaddss	%xmm1, %xmm0, %xmm0
.LBE1032:
.LBE1034:
.LBE1036:
	.loc 4 80 23 discriminator 1 view .LVU198
	addq	$4, %rsi
	.loc 4 81 14 discriminator 3 view .LVU199
	vmovss	%xmm0, -4(%rsi)
	.loc 4 80 5 is_stmt 1 discriminator 2 view .LVU200
	.loc 4 80 23 discriminator 1 view .LVU201
	cmpq	%rdi, %rsi
	je	.L28
.L27:
.LVL52:
.LBB1037:
.LBB1035:
.LBB1033:
.LBB1031:
.LBB1029:
.LBB1027:
.LBB1025:
	.loc 13 3365 34 discriminator 1 view .LVU202
.LBB1023:
.LBI999:
	.loc 13 453 5 view .LVU203
.LBB1019:
	.loc 13 458 7 is_stmt 0 view .LVU204
	cmpq	$624, %rdx
	jne	.L51
	.loc 13 458 7 view .LVU205
	leaq	-5072(%rbp), %rax
.LVL53:
	.loc 13 458 7 view .LVU206
	.p2align 6
	.p2align 4,,10
	.p2align 3
.L34:
.LBB1015:
.LBB1013:
.LBB1009:
.LBB1006:
	.loc 13 406 32 view .LVU207
	vpandq	(%rax), %ymm4, %ymm1
	.loc 13 406 14 view .LVU208
	vmovdqa	%ymm5, %ymm0
	addq	$32, %rax
	vpternlogq	$236, -24(%rax), %ymm1, %ymm0
	.loc 13 408 40 view .LVU209
	vpsrlq	$1, %ymm0, %ymm1
	.loc 13 409 18 view .LVU210
	vpandq	%ymm3, %ymm0, %ymm0
	.loc 13 408 14 view .LVU211
	vpmullq	%ymm2, %ymm0, %ymm0
	vpternlogq	$150, 3144(%rax), %ymm0, %ymm1
	vmovdqa	%ymm1, -32(%rax)
.LBE1006:
	.loc 13 404 7 is_stmt 1 discriminator 2 view .LVU212
	.loc 13 404 32 discriminator 1 view .LVU213
	cmpq	%rax, %rcx
	jne	.L34
.LBB1007:
	.loc 13 406 32 is_stmt 0 view .LVU214
	vpbroadcastq	%r10, %xmm1
	.loc 13 407 24 view .LVU215
	vpbroadcastq	%r11, %xmm0
	.loc 13 406 32 view .LVU216
	movq	-3264(%rbp), %rdx
	.loc 13 409 18 view .LVU217
	vpbroadcastq	%r9, %xmm10
	.loc 13 406 32 view .LVU218
	vpandq	-3280(%rbp), %xmm1, %xmm1
	.loc 13 407 24 view .LVU219
	movq	-3256(%rbp), %rax
	.loc 13 406 32 view .LVU220
	andq	$-2147483648, %rdx
	.loc 13 406 14 view .LVU221
	vpternlogq	$236, -3272(%rbp), %xmm1, %xmm0
	.loc 13 407 24 view .LVU222
	andl	$2147483647, %eax
	.loc 13 408 40 view .LVU223
	vpsrlq	$1, %xmm0, %xmm1
	.loc 13 409 18 view .LVU224
	vpandq	%xmm10, %xmm0, %xmm0
	.loc 13 408 14 view .LVU225
	vpbroadcastq	%r8, %xmm10
	.loc 13 406 14 view .LVU226
	orq	%rdx, %rax
	.loc 13 408 14 view .LVU227
	vpmullq	%xmm10, %xmm0, %xmm0
	.loc 13 408 40 view .LVU228
	movq	%rax, %rdx
	.loc 13 409 26 view .LVU229
	andl	$1, %eax
	.loc 13 408 40 view .LVU230
	shrq	%rdx
	.loc 13 409 26 view .LVU231
	negq	%rax
	.loc 13 408 33 view .LVU232
	xorq	-88(%rbp), %rdx
	.loc 13 409 26 view .LVU233
	andl	$2567483615, %eax
	xorq	%rdx, %rax
	leaq	-88(%rbp), %rdx
	movq	%rax, -3264(%rbp)
	leaq	-3256(%rbp), %rax
	.loc 13 408 14 view .LVU234
	vpternlogq	$150, -104(%rbp), %xmm0, %xmm1
	vmovdqa	%xmm1, -3280(%rbp)
.LBE1007:
	.loc 13 404 7 is_stmt 1 discriminator 2 view .LVU235
	.loc 13 404 32 discriminator 1 view .LVU236
.LVL54:
	.loc 13 404 7 discriminator 2 view .LVU237
	.loc 13 404 32 discriminator 1 view .LVU238
	.p2align 6
	.p2align 4,,10
	.p2align 3
.L32:
.LBE1009:
.LBB1010:
.LBB1011:
	.loc 13 415 24 is_stmt 0 view .LVU239
	vpandq	8(%rax), %ymm5, %ymm1
	.loc 13 414 14 view .LVU240
	vmovdqa	%ymm4, %ymm0
	addq	$32, %rax
	vpternlogq	$236, -32(%rax), %ymm1, %ymm0
	.loc 13 416 48 view .LVU241
	vpsrlq	$1, %ymm0, %ymm1
	.loc 13 417 18 view .LVU242
	vpandq	%ymm3, %ymm0, %ymm0
	.loc 13 416 14 view .LVU243
	vpmullq	%ymm2, %ymm0, %ymm0
	vpternlogq	$150, -1848(%rax), %ymm0, %ymm1
	vmovdqu	%ymm1, -32(%rax)
.LBE1011:
	.loc 13 412 7 is_stmt 1 discriminator 2 view .LVU244
	.loc 13 412 42 discriminator 1 view .LVU245
	cmpq	%rdx, %rax
	jne	.L32
.LBE1010:
	.loc 13 421 17 is_stmt 0 view .LVU246
	movq	-5072(%rbp), %r13
	.loc 13 420 39 view .LVU247
	movq	-88(%rbp), %rax
	.loc 13 421 21 view .LVU248
	movq	%r13, %rdx
	.loc 13 420 39 view .LVU249
	andq	$-2147483648, %rax
	.loc 13 421 21 view .LVU250
	andl	$2147483647, %edx
	.loc 13 420 17 view .LVU251
	orq	%rdx, %rax
.LVL55:
	.loc 13 422 45 view .LVU252
	movq	%rax, %rdx
	.loc 13 423 26 view .LVU253
	andl	$1, %eax
.LVL56:
	.loc 13 422 45 view .LVU254
	shrq	%rdx
.LVL57:
	.loc 13 423 26 view .LVU255
	negq	%rax
	.loc 13 422 38 view .LVU256
	xorq	-1904(%rbp), %rdx
	.loc 13 423 26 view .LVU257
	andl	$2567483615, %eax
	xorq	%rdx, %rax
	.loc 13 422 21 view .LVU258
	movl	$1, %edx
	.loc 13 423 26 view .LVU259
	movq	%rax, -88(%rbp)
.LVL58:
	.loc 13 423 26 view .LVU260
	jmp	.L31
.LVL59:
.L35:
	.loc 13 423 26 view .LVU261
.LBE1013:
.LBE1015:
.LBE1019:
.LBE1023:
.LBE1025:
.LBE1027:
.LBE1029:
.LBE1031:
.LBE1033:
.LBE1035:
.LBE1037:
	.loc 4 81 14 discriminator 3 view .LVU262
	vmovss	%xmm9, (%rsi)
	.loc 4 80 5 is_stmt 1 discriminator 2 view .LVU263
	.loc 4 80 23 discriminator 1 view .LVU264
	addq	$4, %rsi
	cmpq	%rdi, %rsi
	jne	.L27
.L28:
.LBE991:
	.loc 4 83 5 view .LVU265
	.loc 4 83 57 is_stmt 0 view .LVU266
	vzeroupper
.LVL60:
	call	_ZNSt6chrono3_V212system_clock3nowEv@PLT
.LVL61:
	.loc 4 84 9 discriminator 2 view .LVU267
	movl	$4000, %edx
	movq	%rbx, %rsi
	movq	%r12, %rdi
	.loc 4 83 57 view .LVU268
	movq	%rax, %r13
.LVL62:
	.loc 4 84 5 is_stmt 1 view .LVU269
	.loc 4 84 9 is_stmt 0 discriminator 2 view .LVU270
	call	_Z4stepPfPKfi
.LVL63:
	.loc 4 85 5 is_stmt 1 view .LVU271
	.loc 4 85 55 is_stmt 0 view .LVU272
	vzeroupper
.LVL64:
	call	_ZNSt6chrono3_V212system_clock3nowEv@PLT
.LVL65:
	.loc 4 86 5 is_stmt 1 view .LVU273
.LBB1038:
.LBI1038:
	.file 14 "/usr/include/c++/15/bits/chrono.h"
	.loc 14 1145 7 view .LVU274
.LBB1039:
.LBI1039:
	.loc 14 953 2 view .LVU275
	.loc 14 953 2 is_stmt 0 view .LVU276
.LBE1039:
.LBB1040:
.LBI1040:
	.loc 14 953 2 is_stmt 1 view .LVU277
	.loc 14 953 2 is_stmt 0 view .LVU278
.LBE1040:
.LBB1041:
.LBI1041:
	.loc 14 714 7 is_stmt 1 view .LVU279
.LBB1042:
.LBB1043:
.LBI1043:
	.loc 14 577 23 view .LVU280
	.loc 14 577 23 is_stmt 0 view .LVU281
.LBE1043:
.LBE1042:
.LBE1041:
.LBE1038:
.LBB1046:
.LBI1046:
	.loc 14 585 14 is_stmt 1 view .LVU282
.LBB1047:
.LBI1047:
	.loc 14 279 7 view .LVU283
.LBB1048:
.LBB1049:
.LBI1049:
	.loc 14 214 4 view .LVU284
.LBB1050:
	.loc 14 218 8 is_stmt 0 discriminator 1 view .LVU285
	vxorps	%xmm6, %xmm6, %xmm6
	.loc 14 218 38 discriminator 1 view .LVU286
	vmovss	.LC1(%rip), %xmm4
	vmovss	.LC2(%rip), %xmm1
.LVL66:
	.loc 14 218 38 discriminator 1 view .LVU287
.LBE1050:
.LBE1049:
.LBE1048:
.LBE1047:
.LBE1046:
.LBB1057:
.LBB1045:
.LBB1044:
	.loc 14 720 34 discriminator 2 view .LVU288
	subq	%r13, %rax
.LVL67:
	.loc 14 720 34 discriminator 2 view .LVU289
	leaq	64000000(%r12), %rdx
.LBE1044:
.LBE1045:
.LBE1057:
	.loc 4 88 12 view .LVU290
	vxorpd	%xmm3, %xmm3, %xmm3
.LBB1058:
.LBB1055:
.LBB1054:
.LBB1053:
.LBB1052:
	.loc 14 218 8 discriminator 1 view .LVU291
	vcvtsi2sdq	%rax, %xmm6, %xmm6
	movq	%r12, %rax
	.loc 14 218 38 discriminator 1 view .LVU292
	vdivsd	.LC16(%rip), %xmm6, %xmm7
	vmovq	%xmm7, %r13
.LVL68:
.LBB1051:
.LBI1051:
	.loc 14 577 23 is_stmt 1 view .LVU293
	.loc 14 577 23 is_stmt 0 view .LVU294
.LBE1051:
.LBE1052:
.LBE1053:
.LBE1054:
.LBE1055:
.LBB1056:
.LBI1056:
	.loc 14 593 2 is_stmt 1 view .LVU295
	.loc 14 593 2 is_stmt 0 view .LVU296
.LBE1056:
.LBE1058:
	.loc 4 88 5 is_stmt 1 view .LVU297
	.loc 4 89 5 view .LVU298
	.loc 4 90 5 view .LVU299
	.loc 4 91 5 view .LVU300
.LBB1059:
	.loc 4 91 23 discriminator 1 view .LVU301
	.loc 4 91 23 is_stmt 0 discriminator 1 view .LVU302
	.p2align 6
	.p2align 4,,10
	.p2align 3
.L39:
.LVL69:
	.loc 4 92 9 is_stmt 1 view .LVU303
	.loc 4 92 19 is_stmt 0 discriminator 1 view .LVU304
	vmovss	(%rax), %xmm0
	.loc 4 91 23 discriminator 1 view .LVU305
	addq	$4, %rax
	.loc 4 92 19 discriminator 1 view .LVU306
	vcvtss2sd	%xmm0, %xmm0, %xmm2
	vaddsd	%xmm2, %xmm3, %xmm3
.LVL70:
	.loc 4 93 9 is_stmt 1 view .LVU307
	.loc 4 93 9 is_stmt 0 view .LVU308
	vminss	%xmm4, %xmm0, %xmm2
	vmaxss	%xmm1, %xmm0, %xmm1
	vmovaps	%xmm2, %xmm4
.LVL71:
	.loc 4 94 9 is_stmt 1 view .LVU309
	.loc 4 91 5 discriminator 3 view .LVU310
	.loc 4 91 23 discriminator 1 view .LVU311
	cmpq	%rax, %rdx
	jne	.L39
.LBE1059:
.LBB1060:
.LBB1061:
	.file 15 "/usr/include/c++/15/bits/ostream.h"
	.loc 15 739 18 is_stmt 0 view .LVU312
	movl	$4, %edx
	leaq	.LC17(%rip), %rsi
	leaq	_ZSt4cout(%rip), %rdi
	vmovss	%xmm2, -5088(%rbp)
	vmovss	%xmm1, -5084(%rbp)
	vmovsd	%xmm3, -5080(%rbp)
.LBE1061:
.LBE1060:
	.loc 4 96 5 is_stmt 1 view .LVU313
.LVL72:
.LBB1063:
.LBI1060:
	.loc 15 734 5 view .LVU314
.LEHB2:
.LBB1062:
	.loc 15 739 18 is_stmt 0 view .LVU315
	call	_ZSt16__ostream_insertIcSt11char_traitsIcEERSt13basic_ostreamIT_T0_ES6_PKS3_l@PLT
.LVL73:
	.loc 15 739 18 view .LVU316
.LBE1062:
.LBE1063:
	.loc 4 96 33 discriminator 2 view .LVU317
	movl	$4000, %esi
	leaq	_ZSt4cout(%rip), %rdi
	call	_ZNSolsEi@PLT
.LVL74:
.LBB1064:
.LBI1064:
	.loc 15 734 5 is_stmt 1 view .LVU318
.LBB1065:
	.loc 15 739 18 is_stmt 0 view .LVU319
	movl	$1, %edx
	leaq	.LC18(%rip), %rsi
	movq	%rax, %rdi
	call	_ZSt16__ostream_insertIcSt11char_traitsIcEERSt13basic_ostreamIT_T0_ES6_PKS3_l@PLT
.LVL75:
	.loc 15 739 18 view .LVU320
.LBE1065:
.LBE1064:
	.loc 4 97 5 is_stmt 1 view .LVU321
.LBB1066:
.LBI1066:
	.loc 15 734 5 view .LVU322
.LBB1067:
	.loc 15 739 18 is_stmt 0 view .LVU323
	movl	$14, %edx
	leaq	.LC19(%rip), %rsi
	leaq	_ZSt4cout(%rip), %rdi
	call	_ZSt16__ostream_insertIcSt11char_traitsIcEERSt13basic_ostreamIT_T0_ES6_PKS3_l@PLT
.LVL76:
	.loc 15 739 18 view .LVU324
.LBE1067:
.LBE1066:
.LBB1068:
.LBI1068:
	.loc 15 231 7 is_stmt 1 view .LVU325
.LBB1069:
	.loc 15 232 25 is_stmt 0 view .LVU326
	vmovq	%r13, %xmm0
	leaq	_ZSt4cout(%rip), %rdi
	call	_ZNSo9_M_insertIdEERSoT_@PLT
.LVL77:
.LBE1069:
.LBE1068:
.LBB1071:
.LBB1072:
	.loc 15 739 18 view .LVU327
	movl	$8, %edx
	leaq	.LC20(%rip), %rsi
	movq	%rax, %rdi
.LBE1072:
.LBE1071:
.LBB1074:
.LBB1070:
	.loc 15 232 25 view .LVU328
	movq	%rax, %r13
.LVL78:
	.loc 15 232 25 view .LVU329
.LBE1070:
.LBE1074:
.LBB1075:
.LBI1071:
	.loc 15 734 5 is_stmt 1 view .LVU330
.LBB1073:
	.loc 15 739 18 is_stmt 0 view .LVU331
	call	_ZSt16__ostream_insertIcSt11char_traitsIcEERSt13basic_ostreamIT_T0_ES6_PKS3_l@PLT
.LVL79:
	.loc 15 739 18 view .LVU332
.LBE1073:
.LBE1075:
.LBB1076:
.LBI1076:
	.loc 15 116 7 is_stmt 1 view .LVU333
.LBB1077:
	.loc 15 121 13 is_stmt 0 view .LVU334
	movq	%r13, %rdi
	call	_ZSt4endlIcSt11char_traitsIcEERSt13basic_ostreamIT_T0_ES6_.isra.0
.LVL80:
	.loc 15 121 13 view .LVU335
.LBE1077:
.LBE1076:
	.loc 4 98 5 is_stmt 1 view .LVU336
.LBB1078:
.LBI1078:
	.loc 15 734 5 view .LVU337
.LBB1079:
	.loc 15 739 18 is_stmt 0 view .LVU338
	movl	$11, %edx
	leaq	.LC21(%rip), %rsi
	leaq	_ZSt4cout(%rip), %rdi
	call	_ZSt16__ostream_insertIcSt11char_traitsIcEERSt13basic_ostreamIT_T0_ES6_PKS3_l@PLT
.LVL81:
	.loc 15 739 18 view .LVU339
.LBE1079:
.LBE1078:
.LBB1080:
.LBI1080:
	.loc 15 231 7 is_stmt 1 view .LVU340
.LBB1081:
	.loc 15 232 25 is_stmt 0 view .LVU341
	vmovsd	-5080(%rbp), %xmm0
	leaq	_ZSt4cout(%rip), %rdi
	call	_ZNSo9_M_insertIdEERSoT_@PLT
.LVL82:
	.loc 15 232 25 view .LVU342
.LBE1081:
.LBE1080:
.LBB1082:
.LBI1082:
	.loc 15 116 7 is_stmt 1 view .LVU343
.LBB1083:
	.loc 15 121 13 is_stmt 0 view .LVU344
	movq	%rax, %rdi
	call	_ZSt4endlIcSt11char_traitsIcEERSt13basic_ostreamIT_T0_ES6_.isra.0
.LVL83:
	.loc 15 121 13 view .LVU345
.LBE1083:
.LBE1082:
	.loc 4 99 5 is_stmt 1 view .LVU346
.LBB1084:
.LBI1084:
	.loc 15 734 5 view .LVU347
.LBB1085:
	.loc 15 739 18 is_stmt 0 view .LVU348
	movl	$11, %edx
	leaq	.LC22(%rip), %rsi
	leaq	_ZSt4cout(%rip), %rdi
	call	_ZSt16__ostream_insertIcSt11char_traitsIcEERSt13basic_ostreamIT_T0_ES6_PKS3_l@PLT
.LVL84:
	.loc 15 739 18 view .LVU349
.LBE1085:
.LBE1084:
.LBB1086:
.LBI1086:
	.loc 15 235 7 is_stmt 1 view .LVU350
.LBB1087:
.LBB1088:
.LBI1088:
	.loc 15 484 2 view .LVU351
.LBB1089:
	.loc 15 486 8 is_stmt 0 view .LVU352
	vmovss	-5088(%rbp), %xmm2
.LBE1089:
.LBE1088:
	.loc 15 239 18 discriminator 1 view .LVU353
	leaq	_ZSt4cout(%rip), %rdi
.LBB1091:
.LBB1090:
	.loc 15 486 8 view .LVU354
	vcvtss2sd	%xmm2, %xmm2, %xmm0
.LBE1090:
.LBE1091:
	.loc 15 239 18 discriminator 1 view .LVU355
	call	_ZNSo9_M_insertIdEERSoT_@PLT
.LVL85:
	.loc 15 239 18 discriminator 1 view .LVU356
.LBE1087:
.LBE1086:
.LBB1092:
.LBI1092:
	.loc 15 116 7 is_stmt 1 view .LVU357
.LBB1093:
	.loc 15 121 13 is_stmt 0 view .LVU358
	movq	%rax, %rdi
	call	_ZSt4endlIcSt11char_traitsIcEERSt13basic_ostreamIT_T0_ES6_.isra.0
.LVL86:
	.loc 15 121 13 view .LVU359
.LBE1093:
.LBE1092:
	.loc 4 100 5 is_stmt 1 view .LVU360
.LBB1094:
.LBI1094:
	.loc 15 734 5 view .LVU361
.LBB1095:
	.loc 15 739 18 is_stmt 0 view .LVU362
	movl	$11, %edx
	leaq	.LC23(%rip), %rsi
	leaq	_ZSt4cout(%rip), %rdi
	call	_ZSt16__ostream_insertIcSt11char_traitsIcEERSt13basic_ostreamIT_T0_ES6_PKS3_l@PLT
.LVL87:
	.loc 15 739 18 view .LVU363
.LBE1095:
.LBE1094:
.LBB1096:
.LBI1096:
	.loc 15 235 7 is_stmt 1 view .LVU364
.LBB1097:
.LBB1098:
.LBI1098:
	.loc 15 484 2 view .LVU365
.LBB1099:
	.loc 15 486 8 is_stmt 0 view .LVU366
	vmovss	-5084(%rbp), %xmm1
.LBE1099:
.LBE1098:
	.loc 15 239 18 discriminator 1 view .LVU367
	leaq	_ZSt4cout(%rip), %rdi
.LBB1101:
.LBB1100:
	.loc 15 486 8 view .LVU368
	vcvtss2sd	%xmm1, %xmm1, %xmm0
.LBE1100:
.LBE1101:
	.loc 15 239 18 discriminator 1 view .LVU369
	call	_ZNSo9_M_insertIdEERSoT_@PLT
.LVL88:
	.loc 15 239 18 discriminator 1 view .LVU370
.LBE1097:
.LBE1096:
.LBB1102:
.LBI1102:
	.loc 15 116 7 is_stmt 1 view .LVU371
.LBB1103:
	.loc 15 121 13 is_stmt 0 view .LVU372
	movq	%rax, %rdi
	call	_ZSt4endlIcSt11char_traitsIcEERSt13basic_ostreamIT_T0_ES6_.isra.0
.LVL89:
.LEHE2:
	.loc 15 121 13 view .LVU373
.LBE1103:
.LBE1102:
	.loc 4 101 5 is_stmt 1 view .LVU374
.LBB1104:
.LBI1104:
	.loc 9 800 7 view .LVU375
.LBB1105:
.LBI1105:
	.loc 9 307 7 view .LVU376
	.loc 9 307 7 is_stmt 0 view .LVU377
.LBE1105:
.LBB1106:
.LBI1106:
	.loc 11 1042 5 is_stmt 1 view .LVU378
	.loc 11 1042 5 is_stmt 0 view .LVU379
.LBE1106:
.LBB1107:
.LBI1107:
	.loc 9 373 7 is_stmt 1 view .LVU380
.LBB1108:
.LBI1108:
	.loc 9 392 7 view .LVU381
.LBB1109:
.LBB1110:
.LBI1110:
	.loc 11 648 7 view .LVU382
.LBB1111:
.LBI1111:
	.loc 5 156 7 view .LVU383
.LBB1112:
	.loc 5 172 59 is_stmt 0 view .LVU384
	movl	$64000000, %esi
	movq	%r12, %rdi
	call	_ZdlPvm@PLT
.LVL90:
	.loc 5 172 59 view .LVU385
.LBE1112:
.LBE1111:
.LBE1110:
.LBE1109:
.LBE1108:
.LBB1113:
.LBI1113:
	.loc 9 139 14 is_stmt 1 view .LVU386
.LBB1114:
.LBI1114:
	.loc 10 189 7 view .LVU387
.LBB1115:
.LBI1115:
	.loc 5 104 7 view .LVU388
	.loc 5 104 7 is_stmt 0 view .LVU389
.LBE1115:
.LBE1114:
.LBE1113:
.LBE1107:
.LBE1104:
.LBB1116:
.LBI1116:
	.loc 9 800 7 is_stmt 1 view .LVU390
.LBB1117:
.LBI1117:
	.loc 9 307 7 view .LVU391
	.loc 9 307 7 is_stmt 0 view .LVU392
.LBE1117:
.LBB1118:
.LBI1118:
	.loc 11 1042 5 is_stmt 1 view .LVU393
	.loc 11 1042 5 is_stmt 0 view .LVU394
.LBE1118:
.LBB1119:
.LBI1119:
	.loc 9 373 7 is_stmt 1 view .LVU395
.LBB1120:
.LBI1120:
	.loc 9 392 7 view .LVU396
.LBB1121:
.LBB1122:
.LBI1122:
	.loc 11 648 7 view .LVU397
.LBB1123:
.LBI1123:
	.loc 5 156 7 view .LVU398
.LBB1124:
	.loc 5 172 59 is_stmt 0 view .LVU399
	movl	$64000000, %esi
	movq	%rbx, %rdi
	call	_ZdlPvm@PLT
.LVL91:
	.loc 5 172 59 view .LVU400
.LBE1124:
.LBE1123:
.LBE1122:
.LBE1121:
.LBE1120:
.LBB1125:
.LBI1125:
	.loc 9 139 14 is_stmt 1 view .LVU401
.LBB1126:
.LBI1126:
	.loc 10 189 7 view .LVU402
.LBB1127:
.LBI1127:
	.loc 5 104 7 view .LVU403
	.loc 5 104 7 is_stmt 0 view .LVU404
.LBE1127:
.LBE1126:
.LBE1125:
.LBE1119:
.LBE1116:
	.loc 4 102 1 view .LVU405
	movq	-56(%rbp), %rax
	subq	%fs:40, %rax
	jne	.L55
	addq	$5072, %rsp
	xorl	%eax, %eax
	popq	%rbx
.LVL92:
	.loc 4 102 1 view .LVU406
	popq	%r10
	.cfi_remember_state
	.cfi_def_cfa 10, 0
	popq	%r12
.LVL93:
	.loc 4 102 1 view .LVU407
	popq	%r13
	popq	%rbp
.LVL94:
	.loc 4 102 1 view .LVU408
	leaq	-8(%r10), %rsp
	.cfi_def_cfa 7, 8
	ret
.LVL95:
.L55:
	.cfi_restore_state
	.loc 4 102 1 view .LVU409
	call	__stack_chk_fail@PLT
.LVL96:
.L45:
	.loc 4 102 1 view .LVU410
	endbr64
.LBB1128:
.LBB1129:
.LBB1130:
.LBB1131:
.LBB1132:
.LBB1133:
.LBB1134:
	.loc 5 172 59 view .LVU411
	movq	%rax, %r13
	jmp	.L40
.LVL97:
.L44:
	.loc 5 172 59 view .LVU412
	endbr64
.LBE1134:
.LBE1133:
.LBE1132:
.LBE1131:
.LBE1130:
.LBE1129:
.LBE1128:
.LBB1146:
.LBB1147:
.LBB1148:
.LBB1149:
.LBB1150:
.LBB1151:
.LBB1152:
	movq	%rax, %r13
	vzeroupper
.LVL98:
	jmp	.L41
.LVL99:
	.loc 5 172 59 view .LVU413
.LBE1152:
.LBE1151:
.LBE1150:
.LBE1149:
.LBE1148:
.LBE1147:
.LBE1146:
	.section	.gcc_except_table,"a",@progbits
.LLSDA4407:
	.byte	0xff
	.byte	0xff
	.byte	0x1
	.uleb128 .LLSDACSE4407-.LLSDACSB4407
.LLSDACSB4407:
	.uleb128 .LEHB0-.LFB4407
	.uleb128 .LEHE0-.LEHB0
	.uleb128 0
	.uleb128 0
	.uleb128 .LEHB1-.LFB4407
	.uleb128 .LEHE1-.LEHB1
	.uleb128 .L44-.LFB4407
	.uleb128 0
	.uleb128 .LEHB2-.LFB4407
	.uleb128 .LEHE2-.LEHB2
	.uleb128 .L45-.LFB4407
	.uleb128 0
.LLSDACSE4407:
	.section	.text.startup
	.cfi_endproc
	.section	.text.unlikely
	.cfi_startproc
	.cfi_personality 0x9b,DW.ref.__gxx_personality_v0
	.cfi_lsda 0x1b,.LLSDAC4407
	.type	main.cold, @function
main.cold:
.LFSB4407:
.LBB1170:
.LBB1166:
.LBB1161:
.LBB1159:
.LBB1157:
.LBB1155:
.LBB1153:
.L40:
	.cfi_escape 0xf,0x3,0x76,0x68,0x6
	.cfi_escape 0x10,0x3,0x2,0x76,0x60
	.cfi_escape 0x10,0x6,0x2,0x76,0
	.cfi_escape 0x10,0xc,0x2,0x76,0x70
	.cfi_escape 0x10,0xd,0x2,0x76,0x78
.LBE1153:
.LBE1155:
.LBE1157:
.LBE1159:
.LBE1161:
.LBE1166:
.LBE1170:
.LBB1171:
.LBI1128:
	.loc 9 800 7 is_stmt 1 view .LVU33
.LVL100:
.LBB1143:
.LBI1143:
	.loc 9 307 7 view .LVU415
	.loc 9 307 7 is_stmt 0 view .LVU416
.LBE1143:
.LBB1144:
.LBI1144:
	.loc 11 1042 5 is_stmt 1 view .LVU417
	.loc 11 1042 5 is_stmt 0 view .LVU418
.LBE1144:
.LBB1145:
.LBI1129:
	.loc 9 373 7 is_stmt 1 view .LVU419
.LBB1139:
.LBI1130:
	.loc 9 392 7 view .LVU420
.LBB1138:
.LBB1137:
.LBI1132:
	.loc 11 648 7 view .LVU421
.LBB1136:
.LBI1133:
	.loc 5 156 7 view .LVU422
.LBB1135:
	.loc 5 172 59 is_stmt 0 view .LVU423
	movl	$64000000, %esi
	movq	%r12, %rdi
	vzeroupper
.LVL101:
	call	_ZdlPvm@PLT
.LVL102:
	.loc 5 172 59 view .LVU424
.LBE1135:
.LBE1136:
.LBE1137:
.LBE1138:
.LBE1139:
.LBB1140:
.LBI1140:
	.loc 9 139 14 is_stmt 1 view .LVU425
.LBB1141:
.LBI1141:
	.loc 10 189 7 view .LVU426
.LBB1142:
.LBI1142:
	.loc 5 104 7 view .LVU427
.L41:
	.loc 5 104 7 is_stmt 0 view .LVU428
.LBE1142:
.LBE1141:
.LBE1140:
.LBE1145:
.LBE1171:
.LBB1172:
.LBI1146:
	.loc 9 800 7 is_stmt 1 view .LVU429
.LBB1167:
.LBI1167:
	.loc 9 307 7 view .LVU430
	.loc 9 307 7 is_stmt 0 view .LVU431
.LBE1167:
.LBB1168:
.LBI1168:
	.loc 11 1042 5 is_stmt 1 view .LVU432
	.loc 11 1042 5 is_stmt 0 view .LVU433
.LBE1168:
.LBB1169:
.LBI1147:
	.loc 9 373 7 is_stmt 1 view .LVU434
.LBB1162:
.LBI1148:
	.loc 9 392 7 view .LVU435
.LBB1160:
.LBB1158:
.LBI1150:
	.loc 11 648 7 view .LVU436
.LBB1156:
.LBI1151:
	.loc 5 156 7 view .LVU437
.LBB1154:
	.loc 5 172 59 is_stmt 0 view .LVU438
	movl	$64000000, %esi
	movq	%rbx, %rdi
	call	_ZdlPvm@PLT
.LVL103:
	.loc 5 172 59 view .LVU439
.LBE1154:
.LBE1156:
.LBE1158:
.LBE1160:
.LBE1162:
.LBB1163:
.LBI1163:
	.loc 9 139 14 is_stmt 1 view .LVU440
.LBB1164:
.LBI1164:
	.loc 10 189 7 view .LVU441
.LBB1165:
.LBI1165:
	.loc 5 104 7 view .LVU442
	.loc 5 104 7 is_stmt 0 view .LVU443
	movq	-56(%rbp), %rax
	subq	%fs:40, %rax
	jne	.L56
	movq	%r13, %rdi
.LEHB3:
	call	_Unwind_Resume@PLT
.LVL104:
.LEHE3:
.L56:
	call	__stack_chk_fail@PLT
.LVL105:
.LBE1165:
.LBE1164:
.LBE1163:
.LBE1169:
.LBE1172:
	.cfi_endproc
.LFE4407:
	.section	.gcc_except_table
.LLSDAC4407:
	.byte	0xff
	.byte	0xff
	.byte	0x1
	.uleb128 .LLSDACSEC4407-.LLSDACSBC4407
.LLSDACSBC4407:
	.uleb128 .LEHB3-.LCOLDB24
	.uleb128 .LEHE3-.LEHB3
	.uleb128 0
	.uleb128 0
.LLSDACSEC4407:
	.section	.text.unlikely
	.section	.text.startup
	.size	main, .-main
	.section	.text.unlikely
	.size	main.cold, .-main.cold
.LCOLDE24:
	.section	.text.startup
.LHOTE24:
	.section	.rodata.cst4,"aM",@progbits,4
	.align 4
.LC1:
	.long	2139095039
	.align 4
.LC2:
	.long	-8388609
	.align 4
.LC5:
	.long	1065353215
	.align 4
.LC14:
	.long	796917760
	.align 4
.LC15:
	.long	1065353216
	.section	.rodata.cst8,"aM",@progbits,8
	.align 8
.LC16:
	.long	0
	.long	1104006501
	.text
.Letext0:
	.section	.text.unlikely
.Letext_cold0:
	.file 16 "<built-in>"
	.file 17 "/usr/lib/gcc/x86_64-linux-gnu/15/include/stddef.h"
	.file 18 "/usr/include/x86_64-linux-gnu/bits/types/wint_t.h"
	.file 19 "/usr/include/x86_64-linux-gnu/bits/types/__mbstate_t.h"
	.file 20 "/usr/include/x86_64-linux-gnu/bits/types/mbstate_t.h"
	.file 21 "/usr/include/x86_64-linux-gnu/bits/types/__FILE.h"
	.file 22 "/usr/include/x86_64-linux-gnu/bits/types/struct_FILE.h"
	.file 23 "/usr/include/x86_64-linux-gnu/bits/types/FILE.h"
	.file 24 "/usr/include/c++/15/cwchar"
	.file 25 "/usr/include/x86_64-linux-gnu/c++/15/bits/c++config.h"
	.file 26 "/usr/include/c++/15/type_traits"
	.file 27 "/usr/include/c++/15/bits/exception_ptr.h"
	.file 28 "/usr/include/c++/15/bits/char_traits.h"
	.file 29 "/usr/include/c++/15/clocale"
	.file 30 "/usr/include/c++/15/bits/stl_iterator_base_types.h"
	.file 31 "/usr/include/c++/15/debug/debug.h"
	.file 32 "/usr/include/c++/15/cstdlib"
	.file 33 "/usr/include/c++/15/cstdio"
	.file 34 "/usr/include/c++/15/cstddef"
	.file 35 "/usr/include/c++/15/cwctype"
	.file 36 "/usr/include/c++/15/bits/ostream.tcc"
	.file 37 "/usr/include/c++/15/bits/ios_base.h"
	.file 38 "/usr/include/c++/15/iosfwd"
	.file 39 "/usr/include/c++/15/cmath"
	.file 40 "/usr/include/c++/15/cstdint"
	.file 41 "/usr/include/c++/15/bits/std_abs.h"
	.file 42 "/usr/include/c++/15/ctime"
	.file 43 "/usr/include/c++/15/ratio"
	.file 44 "/usr/include/c++/15/bits/vector.tcc"
	.file 45 "/usr/include/c++/15/initializer_list"
	.file 46 "/usr/include/c++/15/bits/basic_ios.tcc"
	.file 47 "/usr/include/c++/15/bits/ostream_insert.h"
	.file 48 "/usr/include/c++/15/bits/postypes.h"
	.file 49 "/usr/include/c++/15/bits/functexcept.h"
	.file 50 "/usr/include/wchar.h"
	.file 51 "/usr/include/x86_64-linux-gnu/bits/wchar2.h"
	.file 52 "/usr/include/x86_64-linux-gnu/bits/types/struct_tm.h"
	.file 53 "/usr/include/c++/15/bits/predefined_ops.h"
	.file 54 "/usr/include/c++/15/ext/alloc_traits.h"
	.file 55 "/usr/include/c++/15/ext/type_traits.h"
	.file 56 "/usr/include/locale.h"
	.file 57 "/usr/include/x86_64-linux-gnu/bits/types.h"
	.file 58 "/usr/include/x86_64-linux-gnu/bits/types/time_t.h"
	.file 59 "/usr/include/x86_64-linux-gnu/bits/types/struct_timespec.h"
	.file 60 "/usr/include/x86_64-linux-gnu/bits/types/clock_t.h"
	.file 61 "/usr/include/c++/15/bits/stl_iterator.h"
	.file 62 "/usr/include/stdlib.h"
	.file 63 "/usr/include/x86_64-linux-gnu/bits/stdint-intn.h"
	.file 64 "/usr/include/x86_64-linux-gnu/bits/stdlib-float.h"
	.file 65 "/usr/include/x86_64-linux-gnu/bits/stdlib-bsearch.h"
	.file 66 "/usr/include/x86_64-linux-gnu/bits/stdlib.h"
	.file 67 "/usr/include/x86_64-linux-gnu/bits/types/__fpos_t.h"
	.file 68 "/usr/include/stdio.h"
	.file 69 "/usr/include/x86_64-linux-gnu/bits/stdio2.h"
	.file 70 "/usr/include/x86_64-linux-gnu/bits/stdio.h"
	.file 71 "/usr/include/x86_64-linux-gnu/bits/wctype-wchar.h"
	.file 72 "/usr/include/wctype.h"
	.file 73 "/usr/include/math.h"
	.file 74 "/usr/include/x86_64-linux-gnu/bits/stdint-uintn.h"
	.file 75 "/usr/include/x86_64-linux-gnu/bits/stdint-least.h"
	.file 76 "/usr/include/stdint.h"
	.file 77 "/usr/include/c++/15/stdlib.h"
	.file 78 "/usr/include/c++/15/pstl/execution_defs.h"
	.file 79 "/usr/include/c++/15/system_error"
	.file 80 "/usr/include/time.h"
	.file 81 "/usr/include/c++/15/new"
	.file 82 "/usr/include/c++/15/bits/memory_resource.h"
	.file 83 "/usr/include/c++/15/iostream"
	.file 84 "/usr/include/c++/15/string_view"
	.section	.data.rel.local.DW.ref.__gxx_personality_v0,"awG",@progbits,DW.ref.__gxx_personality_v0,comdat
	.align 8
	.type	DW.ref.__gxx_personality_v0, @object
	.size	DW.ref.__gxx_personality_v0, 8
DW.ref.__gxx_personality_v0:
	.quad	__gxx_personality_v0
	.globl	__gxx_personality_v0
	.ident	"GCC: (Ubuntu 15.2.0-16ubuntu1) 15.2.0"
	.section	.note.GNU-stack,"",@progbits
	.section	.note.gnu.property,"a"
	.align 8
	.long	1f - 0f
	.long	4f - 1f
	.long	5
0:
	.string	"GNU"
1:
	.align 8
	.long	0xc0000002
	.long	3f - 2f
2:
	.long	0x3
3:
	.align 8
4:
